target datalayout = "e-m:e-p270:32:32-p271:32:32-p272:64:64-i64:64-i128:128-f80:128-n8:16:32:64-S128"
target triple = "x86_64-pc-linux-gnu"

%"struct.nanogui::Array" = type { [2 x i32] }
%"class.nanogui::RenderPass" = type <{ %"class.nanogui::Object.base", [4 x i8], %"class.std::vector.0", i8, [7 x i8], %"class.std::vector.5", float, i8, [3 x i8], %"struct.nanogui::Array", %"struct.nanogui::Array", %"struct.nanogui::Array", i32, i8, [3 x i8], i32, [4 x i8], %"class.nanogui::ref", i8, [3 x i8], i32, [4 x i32], [4 x i32], i8, i8, i8, i8, i8, [3 x i8] }>
%"class.nanogui::Object.base" = type <{ ptr, %"struct.std::atomic" }>
%"struct.std::atomic" = type { %"struct.std::__atomic_base" }
%"struct.std::__atomic_base" = type { i32 }
%"class.std::vector.0" = type { %"struct.std::_Vector_base.1" }
%"struct.std::_Vector_base.1" = type { %"struct.std::_Vector_base<nanogui::ref<nanogui::Object>, std::allocator<nanogui::ref<nanogui::Object>>>::_Vector_impl" }
%"struct.std::_Vector_base<nanogui::ref<nanogui::Object>, std::allocator<nanogui::ref<nanogui::Object>>>::_Vector_impl" = type { %"struct.std::_Vector_base<nanogui::ref<nanogui::Object>, std::allocator<nanogui::ref<nanogui::Object>>>::_Vector_impl_data" }
%"struct.std::_Vector_base<nanogui::ref<nanogui::Object>, std::allocator<nanogui::ref<nanogui::Object>>>::_Vector_impl_data" = type { ptr, ptr, ptr }
%"class.std::vector.5" = type { %"struct.std::_Vector_base.6" }
%"struct.std::_Vector_base.6" = type { %"struct.std::_Vector_base<nanogui::Color, std::allocator<nanogui::Color>>::_Vector_impl" }
%"struct.std::_Vector_base<nanogui::Color, std::allocator<nanogui::Color>>::_Vector_impl" = type { %"struct.std::_Vector_base<nanogui::Color, std::allocator<nanogui::Color>>::_Vector_impl_data" }
%"struct.std::_Vector_base<nanogui::Color, std::allocator<nanogui::Color>>::_Vector_impl_data" = type { ptr, ptr, ptr }
%"class.nanogui::ref" = type { ptr }

@_ZTIN7nanogui6ObjectE = external constant ptr
@_ZTIN7nanogui7TextureE = external constant ptr

; Function Attrs: mustprogress nounwind uwtable
define linkonce_odr hidden void @_ZN7nanogui5ArrayIiLm2EEC2ILm2ETnNSt9enable_ifIXeqT_Li2EEiE4typeELi0EEEii(ptr noundef nonnull align 4 dereferenceable(8) %0, i32 noundef %1, i32 noundef %2) unnamed_addr #1 comdat align 2 {
  %4 = alloca ptr, align 8
  %5 = alloca i32, align 4
  %6 = alloca i32, align 4
  store ptr %0, ptr %4, align 8
  store i32 %1, ptr %5, align 4
  store i32 %2, ptr %6, align 4
  %7 = load ptr, ptr %4, align 8
  %8 = load i32, ptr %5, align 4
  %9 = getelementptr inbounds %"struct.nanogui::Array", ptr %7, i32 0, i32 0
  %10 = getelementptr inbounds [2 x i32], ptr %9, i64 0, i64 0
  store i32 %8, ptr %10, align 4
  %11 = load i32, ptr %6, align 4
  %12 = getelementptr inbounds %"struct.nanogui::Array", ptr %7, i32 0, i32 0
  %13 = getelementptr inbounds [2 x i32], ptr %12, i64 0, i64 1
  store i32 %11, ptr %13, align 4
  ret void
}

; Function Attrs: mustprogress nounwind uwtable
define linkonce_odr hidden noundef ptr @_ZN7nanogui3refINS_6ObjectEE3getEv(ptr noundef nonnull align 8 dereferenceable(8) %0) #1 comdat align 2 {
  %2 = alloca ptr, align 8
  store ptr %0, ptr %2, align 8
  %3 = load ptr, ptr %2, align 8
  %4 = getelementptr inbounds %"class.nanogui::ref", ptr %3, i32 0, i32 0
  %5 = load ptr, ptr %4, align 8
  ret ptr %5
}

; Function Attrs: mustprogress nounwind uwtable
define linkonce_odr hidden noundef nonnull align 8 dereferenceable(8) ptr @_ZNSt6vectorIN7nanogui3refINS0_6ObjectEEESaIS3_EEixEm(ptr noundef nonnull align 8 dereferenceable(24) %0, i64 noundef %1) #1 comdat align 2 {
  %3 = alloca ptr, align 8
  %4 = alloca i64, align 8
  store ptr %0, ptr %3, align 8
  store i64 %1, ptr %4, align 8
  %5 = load ptr, ptr %3, align 8
  %6 = getelementptr inbounds %"struct.std::_Vector_base.1", ptr %5, i32 0, i32 0
  %7 = getelementptr inbounds %"struct.std::_Vector_base<nanogui::ref<nanogui::Object>, std::allocator<nanogui::ref<nanogui::Object>>>::_Vector_impl_data", ptr %6, i32 0, i32 0
  %8 = load ptr, ptr %7, align 8
  %9 = load i64, ptr %4, align 8
  %10 = getelementptr inbounds %"class.nanogui::ref", ptr %8, i64 %9
  ret ptr %10
}

; Function Attrs: mustprogress nounwind uwtable
define linkonce_odr hidden noundef i64 @_ZNKSt6vectorIN7nanogui3refINS0_6ObjectEEESaIS3_EE4sizeEv(ptr noundef nonnull align 8 dereferenceable(24) %0) #1 comdat align 2 {
  %2 = alloca ptr, align 8
  store ptr %0, ptr %2, align 8
  %3 = load ptr, ptr %2, align 8
  %4 = getelementptr inbounds %"struct.std::_Vector_base.1", ptr %3, i32 0, i32 0
  %5 = getelementptr inbounds %"struct.std::_Vector_base<nanogui::ref<nanogui::Object>, std::allocator<nanogui::ref<nanogui::Object>>>::_Vector_impl_data", ptr %4, i32 0, i32 1
  %6 = load ptr, ptr %5, align 8
  %7 = getelementptr inbounds %"struct.std::_Vector_base.1", ptr %3, i32 0, i32 0
  %8 = getelementptr inbounds %"struct.std::_Vector_base<nanogui::ref<nanogui::Object>, std::allocator<nanogui::ref<nanogui::Object>>>::_Vector_impl_data", ptr %7, i32 0, i32 0
  %9 = load ptr, ptr %8, align 8
  %10 = ptrtoint ptr %6 to i64
  %11 = ptrtoint ptr %9 to i64
  %12 = sub i64 %10, %11
  %13 = sdiv exact i64 %12, 8
  ret i64 %13
}

; Function Attrs: mustprogress uwtable
define hidden void @_ZN7nanogui10RenderPass6resizeERKNS_5ArrayIiLm2EEE(ptr noundef nonnull align 8 dereferenceable(173) %0, ptr noundef nonnull align 4 dereferenceable(8) %1) #0 align 2 {
  %3 = alloca ptr, align 8
  %4 = alloca ptr, align 8
  %5 = alloca i64, align 8
  %6 = alloca ptr, align 8
  %7 = alloca %"struct.nanogui::Array", align 4
  store ptr %0, ptr %3, align 8
  store ptr %1, ptr %4, align 8
  %8 = load ptr, ptr %3, align 8
  store i64 0, ptr %5, align 8
  br label %9

9:                                                ; preds = %31, %2
  %10 = load i64, ptr %5, align 8
  %11 = getelementptr inbounds %"class.nanogui::RenderPass", ptr %8, i32 0, i32 2
  %12 = call noundef i64 @_ZNKSt6vectorIN7nanogui3refINS0_6ObjectEEESaIS3_EE4sizeEv(ptr noundef nonnull align 8 dereferenceable(24) %11) #12
  %13 = icmp ult i64 %10, %12
  br i1 %13, label %14, label %34

14:                                               ; preds = %9
  %15 = getelementptr inbounds %"class.nanogui::RenderPass", ptr %8, i32 0, i32 2
  %16 = load i64, ptr %5, align 8
  %17 = call noundef nonnull align 8 dereferenceable(8) ptr @_ZNSt6vectorIN7nanogui3refINS0_6ObjectEEESaIS3_EEixEm(ptr noundef nonnull align 8 dereferenceable(24) %15, i64 noundef %16) #12
  %18 = call noundef ptr @_ZN7nanogui3refINS_6ObjectEE3getEv(ptr noundef nonnull align 8 dereferenceable(8) %17)
  %19 = icmp eq ptr %18, null
  br i1 %19, label %22, label %20

20:                                               ; preds = %14
  %21 = call ptr @__dynamic_cast(ptr %18, ptr @_ZTIN7nanogui6ObjectE, ptr @_ZTIN7nanogui7TextureE, i64 0) #12
  br label %23

22:                                               ; preds = %14
  br label %23

23:                                               ; preds = %22, %20
  %24 = phi ptr [ %21, %20 ], [ null, %22 ]
  store ptr %24, ptr %6, align 8
  %25 = load ptr, ptr %6, align 8
  %26 = icmp ne ptr %25, null
  br i1 %26, label %27, label %30

27:                                               ; preds = %23
  %28 = load ptr, ptr %6, align 8
  %29 = load ptr, ptr %4, align 8
  call void @_ZN7nanogui7Texture6resizeERKNS_5ArrayIiLm2EEE(ptr noundef nonnull align 8 dereferenceable(40) %28, ptr noundef nonnull align 4 dereferenceable(8) %29)
  br label %30

30:                                               ; preds = %27, %23
  br label %31

31:                                               ; preds = %30
  %32 = load i64, ptr %5, align 8
  %33 = add i64 %32, 1
  store i64 %33, ptr %5, align 8
  br label %9, !llvm.loop !11

34:                                               ; preds = %9
  %35 = load ptr, ptr %4, align 8
  %36 = getelementptr inbounds %"class.nanogui::RenderPass", ptr %8, i32 0, i32 11
  call void @llvm.memcpy.p0.p0.i64(ptr align 8 %36, ptr align 4 %35, i64 8, i1 false)
  call void @_ZN7nanogui5ArrayIiLm2EEC2ILm2ETnNSt9enable_ifIXeqT_Li2EEiE4typeELi0EEEii(ptr noundef nonnull align 4 dereferenceable(8) %7, i32 noundef 0, i32 noundef 0)
  %37 = getelementptr inbounds %"class.nanogui::RenderPass", ptr %8, i32 0, i32 9
  call void @llvm.memcpy.p0.p0.i64(ptr align 8 %37, ptr align 4 %7, i64 8, i1 false)
  %38 = load ptr, ptr %4, align 8
  %39 = getelementptr inbounds %"class.nanogui::RenderPass", ptr %8, i32 0, i32 10
  call void @llvm.memcpy.p0.p0.i64(ptr align 8 %39, ptr align 4 %38, i64 8, i1 false)
  ret void
}