; Function Attrs: mustprogress uwtable
define hidden void @_ZN7nanogui10RenderPass6resizeERKNS_5ArrayIiLm2EEE(ptr nocapture noundef nonnull align 8 dereferenceable(173) %0, ptr noundef nonnull align 4 dereferenceable(8) %1) local_unnamed_addr #5 align 2 {
  %3 = getelementptr inbounds i8, ptr %0, i64 16
  %4 = getelementptr inbounds i8, ptr %0, i64 24
  %5 = load ptr, ptr %4, align 8
  %6 = load ptr, ptr %3, align 8
  %.not12 = icmp eq ptr %5, %6
  br i1 %.not12, label %._crit_edge, label %.lr.ph

.lr.ph:                                           ; preds = %2, %.thread
  %7 = phi ptr [ %15, %.thread ], [ %6, %2 ]
  %8 = phi ptr [ %16, %.thread ], [ %5, %2 ]
  %.011 = phi i64 [ %17, %.thread ], [ 0, %2 ]
  %9 = getelementptr inbounds %"class.nanogui::ref", ptr %7, i64 %.011
  %10 = load ptr, ptr %9, align 8
  %11 = icmp eq ptr %10, null
  br i1 %11, label %.thread, label %12

12:                                               ; preds = %.lr.ph
  %13 = tail call ptr @__dynamic_cast(ptr nonnull %10, ptr nonnull @_ZTIN7nanogui6ObjectE, ptr nonnull @_ZTIN7nanogui7TextureE, i64 0) #18
  %.not = icmp eq ptr %13, null
  br i1 %.not, label %.thread, label %14

14:                                               ; preds = %12
  tail call void @_ZN7nanogui7Texture6resizeERKNS_5ArrayIiLm2EEE(ptr noundef nonnull align 8 dereferenceable(40) %13, ptr noundef nonnull align 4 dereferenceable(8) %1)
  %.pre = load ptr, ptr %4, align 8
  %.pre13 = load ptr, ptr %3, align 8
  br label %.thread

.thread:                                          ; preds = %.lr.ph, %12, %14
  %15 = phi ptr [ %7, %.lr.ph ], [ %7, %12 ], [ %.pre13, %14 ]
  %16 = phi ptr [ %8, %.lr.ph ], [ %8, %12 ], [ %.pre, %14 ]
  %17 = add nuw i64 %.011, 1
  %18 = ptrtoint ptr %16 to i64
  %19 = ptrtoint ptr %15 to i64
  %20 = sub i64 %18, %19
  %21 = ashr exact i64 %20, 3
  %22 = icmp ult i64 %17, %21
  br i1 %22, label %.lr.ph, label %._crit_edge, !llvm.loop !14

._crit_edge:                                      ; preds = %.thread, %2
  %23 = getelementptr inbounds i8, ptr %0, i64 96
  %24 = load i64, ptr %1, align 4
  store i64 %24, ptr %23, align 8
  %25 = getelementptr inbounds i8, ptr %0, i64 80
  store i64 0, ptr %25, align 8
  %26 = getelementptr inbounds i8, ptr %0, i64 88
  %27 = load i64, ptr %1, align 4
  store i64 %27, ptr %26, align 8
  ret void
}